; Function Attrs: mustprogress nounwind uwtable
define internal fastcc noundef nonnull ptr @_ZNSt8_Rb_treeIN12_GLOBAL__N_18CallInfoIN4llvm11GlobalValueEEESt4pairIKS4_NS2_13ConstantRangeEESt10_Select1stIS8_ENS4_4LessESaIS8_EE7_M_copyILb0ENSD_20_Reuse_or_alloc_nodeEEEPSt13_Rb_tree_nodeIS8_ESI_PSt18_Rb_tree_node_baseRT0_(ptr noundef %0, ptr noundef nonnull %1, ptr noundef nonnull align 8 dereferenceable(24) %2) unnamed_addr #0 align 2 {
  %4 = tail call fastcc noundef ptr @_ZNSt8_Rb_treeIN12_GLOBAL__N_18CallInfoIN4llvm11GlobalValueEEESt4pairIKS4_NS2_13ConstantRangeEESt10_Select1stIS8_ENS4_4LessESaIS8_EE13_M_clone_nodeILb0ENSD_20_Reuse_or_alloc_nodeEEEPSt13_Rb_tree_nodeIS8_ESI_RT0_(ptr noundef %0, ptr noundef nonnull align 8 dereferenceable(24) %2)
  %5 = getelementptr inbounds nuw i8, ptr %4, i64 8
  store ptr %1, ptr %5, align 8
  %6 = getelementptr inbounds nuw i8, ptr %0, i64 24
  %7 = load ptr, ptr %6, align 8
  %.not = icmp eq ptr %7, null
  br i1 %.not, label %11, label %8

8:                                                ; preds = %3
  %9 = tail call fastcc noundef ptr @_ZNSt8_Rb_treeIN12_GLOBAL__N_18CallInfoIN4llvm11GlobalValueEEESt4pairIKS4_NS2_13ConstantRangeEESt10_Select1stIS8_ENS4_4LessESaIS8_EE7_M_copyILb0ENSD_20_Reuse_or_alloc_nodeEEEPSt13_Rb_tree_nodeIS8_ESI_PSt18_Rb_tree_node_baseRT0_(ptr noundef nonnull %7, ptr noundef %4, ptr noundef nonnull align 8 dereferenceable(24) %2)
  %10 = getelementptr inbounds nuw i8, ptr %4, i64 24
  store ptr %9, ptr %10, align 8
  br label %11

11:                                               ; preds = %8, %3
  %.0.in1 = getelementptr i8, ptr %0, i64 16
  %.02 = load ptr, ptr %.0.in1, align 8
  %.not283 = icmp eq ptr %.02, null
  br i1 %.not283, label %._crit_edge, label %.lr.ph

.lr.ph:                                           ; preds = %11, %20
  %.05 = phi ptr [ %.0, %20 ], [ %.02, %11 ]
  %.0274 = phi ptr [ %12, %20 ], [ %4, %11 ]
  %12 = tail call fastcc noundef ptr @_ZNSt8_Rb_treeIN12_GLOBAL__N_18CallInfoIN4llvm11GlobalValueEEESt4pairIKS4_NS2_13ConstantRangeEESt10_Select1stIS8_ENS4_4LessESaIS8_EE13_M_clone_nodeILb0ENSD_20_Reuse_or_alloc_nodeEEEPSt13_Rb_tree_nodeIS8_ESI_RT0_(ptr noundef nonnull %.05, ptr noundef nonnull align 8 dereferenceable(24) %2)
  %13 = getelementptr inbounds nuw i8, ptr %.0274, i64 16
  store ptr %12, ptr %13, align 8
  %14 = getelementptr inbounds nuw i8, ptr %12, i64 8
  store ptr %.0274, ptr %14, align 8
  %15 = getelementptr inbounds nuw i8, ptr %.05, i64 24
  %16 = load ptr, ptr %15, align 8
  %.not29 = icmp eq ptr %16, null
  br i1 %.not29, label %20, label %17

17:                                               ; preds = %.lr.ph
  %18 = tail call fastcc noundef ptr @_ZNSt8_Rb_treeIN12_GLOBAL__N_18CallInfoIN4llvm11GlobalValueEEESt4pairIKS4_NS2_13ConstantRangeEESt10_Select1stIS8_ENS4_4LessESaIS8_EE7_M_copyILb0ENSD_20_Reuse_or_alloc_nodeEEEPSt13_Rb_tree_nodeIS8_ESI_PSt18_Rb_tree_node_baseRT0_(ptr noundef nonnull %16, ptr noundef %12, ptr noundef nonnull align 8 dereferenceable(24) %2)
  %19 = getelementptr inbounds nuw i8, ptr %12, i64 24
  store ptr %18, ptr %19, align 8
  br label %20

20:                                               ; preds = %17, %.lr.ph
  %.0.in = getelementptr i8, ptr %.05, i64 16
  %.0 = load ptr, ptr %.0.in, align 8
  %.not28 = icmp eq ptr %.0, null
  br i1 %.not28, label %._crit_edge, label %.lr.ph, !llvm.loop !165

._crit_edge:                                      ; preds = %20, %11
  ret ptr %4
}